target datalayout = "e-m:e-p270:32:32-p271:32:32-p272:64:64-i64:64-i128:128-f80:128-n8:16:32:64-S128"
target triple = "x86_64-unknown-linux-gnu"

%"class.node::quic::StatelessResetToken" = type { %"class.node::MemoryRetainer", ptr, [16 x i8] }
%"class.node::MemoryRetainer" = type { ptr }
%"struct.std::hash" = type { i8 }

; Function Attrs: mustprogress nounwind uwtable
define linkonce_odr dso_local noundef i64 @_ZNKSt4hashIhEclEh(ptr noundef nonnull align 1 dereferenceable(1) %this, i8 noundef zeroext %__val) #4 comdat align 2 {
entry:
  %this.addr = alloca ptr, align 8
  %__val.addr = alloca i8, align 1
  store ptr %this, ptr %this.addr, align 8
  store i8 %__val, ptr %__val.addr, align 1
  %0 = load i8, ptr %__val.addr, align 1
  %conv = zext i8 %0 to i64
  ret i64 %conv
}

; Function Attrs: mustprogress nounwind uwtable
define dso_local noundef i64 @_ZNK4node4quic19StatelessResetToken4HashclERKS1_(ptr noundef nonnull align 1 dereferenceable(1) %this, ptr noundef nonnull align 8 dereferenceable(32) %token) #4 align 2 {
entry:
  %retval = alloca i64, align 8
  %this.addr = alloca ptr, align 8
  %token.addr = alloca ptr, align 8
  %hash = alloca i64, align 8
  %n = alloca i64, align 8
  %ref.tmp = alloca %"struct.std::hash", align 1
  store ptr %this, ptr %this.addr, align 8
  store ptr %token, ptr %token.addr, align 8
  store i64 0, ptr %hash, align 8
  %0 = load ptr, ptr %token.addr, align 8
  %ptr_ = getelementptr inbounds %"class.node::quic::StatelessResetToken", ptr %0, i32 0, i32 1
  %1 = load ptr, ptr %ptr_, align 8
  %cmp = icmp eq ptr %1, null
  br i1 %cmp, label %if.then, label %if.end

if.then:                                          ; preds = %entry
  %2 = load i64, ptr %hash, align 8
  store i64 %2, ptr %retval, align 8
  br label %return

if.end:                                           ; preds = %entry
  store i64 0, ptr %n, align 8
  br label %for.cond

for.cond:                                         ; preds = %for.inc, %if.end
  %3 = load i64, ptr %n, align 8
  %cmp2 = icmp ult i64 %3, 16
  br i1 %cmp2, label %for.body, label %for.end

for.body:                                         ; preds = %for.cond
  %4 = load ptr, ptr %token.addr, align 8
  %ptr_3 = getelementptr inbounds %"class.node::quic::StatelessResetToken", ptr %4, i32 0, i32 1
  %5 = load ptr, ptr %ptr_3, align 8
  %6 = load i64, ptr %n, align 8
  %arrayidx = getelementptr inbounds i8, ptr %5, i64 %6
  %7 = load i8, ptr %arrayidx, align 1
  %call = call noundef i64 @_ZNKSt4hashIhEclEh(ptr noundef nonnull align 1 dereferenceable(1) %ref.tmp, i8 noundef zeroext %7) #3
  %add = add i64 %call, 2654435769
  %8 = load i64, ptr %hash, align 8
  %shl = shl i64 %8, 6
  %add4 = add i64 %add, %shl
  %9 = load i64, ptr %hash, align 8
  %shr = lshr i64 %9, 2
  %add5 = add i64 %add4, %shr
  %10 = load i64, ptr %hash, align 8
  %xor = xor i64 %10, %add5
  store i64 %xor, ptr %hash, align 8
  br label %for.inc

for.inc:                                          ; preds = %for.body
  %11 = load i64, ptr %n, align 8
  %inc = add i64 %11, 1
  store i64 %inc, ptr %n, align 8
  br label %for.cond, !llvm.loop !5

for.end:                                          ; preds = %for.cond
  %12 = load i64, ptr %hash, align 8
  store i64 %12, ptr %retval, align 8
  br label %return

return:                                           ; preds = %for.end, %if.then
  %13 = load i64, ptr %retval, align 8
  ret i64 %13
}