; Function Attrs: mustprogress nofree norecurse nosync nounwind willreturn memory(read, inaccessiblemem: none) uwtable
define dso_local noundef i64 @_ZNK4node4quic19StatelessResetToken4HashclERKS1_(ptr nocapture noundef nonnull readnone align 1 dereferenceable(1) %this, ptr nocapture noundef nonnull readonly align 8 dereferenceable(32) %token) local_unnamed_addr #12 align 2 {
entry:
  %ptr_ = getelementptr inbounds i8, ptr %token, i64 8
  %0 = load ptr, ptr %ptr_, align 8
  %cmp = icmp eq ptr %0, null
  br i1 %cmp, label %return, label %for.body

for.body:                                         ; preds = %entry, %for.body
  %n.09 = phi i64 [ %inc, %for.body ], [ 0, %entry ]
  %hash.08 = phi i64 [ %xor, %for.body ], [ 0, %entry ]
  %arrayidx = getelementptr inbounds i8, ptr %0, i64 %n.09
  %1 = load i8, ptr %arrayidx, align 1
  %conv.i = zext i8 %1 to i64
  %shl = shl i64 %hash.08, 6
  %shr = lshr i64 %hash.08, 2
  %add = add i64 %shl, 2654435769
  %add4 = add i64 %add, %shr
  %add5 = add i64 %add4, %conv.i
  %xor = xor i64 %add5, %hash.08
  %inc = add nuw nsw i64 %n.09, 1
  %exitcond.not = icmp eq i64 %inc, 16
  br i1 %exitcond.not, label %return, label %for.body, !llvm.loop !5

return:                                           ; preds = %for.body, %entry
  %retval.0 = phi i64 [ 0, %entry ], [ %xor, %for.body ]
  ret i64 %retval.0
}